target datalayout = "e-m:e-p270:32:32-p271:32:32-p272:64:64-i64:64-i128:128-f80:128-n8:16:32:64-S128"
target triple = "x86_64-pc-linux-gnu"

%struct.AVCodecParser = type { [7 x i32], i32, ptr, ptr, ptr, ptr }
%struct.AVCodecParserContext = type { ptr, ptr, i64, i64, i64, i32, i32, i64, i64, i64, i64, i32, i32, [4 x i64], [4 x i64], [4 x i64], i32, i64, [4 x i64], i32, i32, i32, i32, [4 x i64], i64, i64, i32, i32, i32, i32, i32, i32, i32, i32, i32 }
%struct.G723_1ParseContext = type { %struct.ParseContext }
%struct.ParseContext = type { ptr, i32, i32, i32, i32, i32, i32, i32, i64 }
%struct.AVCodecContext = type { ptr, i32, i32, ptr, i32, i32, ptr, ptr, ptr, i64, i32, i32, ptr, i32, %struct.AVRational, %struct.AVRational, %struct.AVRational, i32, i32, i32, i32, i32, %struct.AVRational, i32, i32, i32, i32, i32, i32, i32, i32, i32, i32, i32, ptr, ptr, i32, float, float, float, float, float, float, float, float, float, i32, i32, i32, i32, i32, i32, i32, i32, i32, i32, i32, i32, ptr, ptr, ptr, i32, i32, i32, i32, i32, i32, i32, i32, i32, i32, %struct.AVChannelLayout, i32, i32, i32, i32, i32, i32, i32, i32, ptr, i32, i32, i32, float, float, i32, i32, i32, i32, i32, ptr, i64, i64, float, float, i32, i32, ptr, ptr, i32, i32, i32, i32, i32, ptr, ptr, ptr, ptr, i32, i32, [8 x i64], i32, i32, i32, i32, i32, i32, i32, ptr, ptr, i32, i32, i32, i32, i32, i32, i32, i32, i32, i32, ptr, ptr, i32, i32, ptr, ptr, ptr, ptr, i32, i32, i64, i32, i32, i64, ptr, i64, ptr, i32, ptr, i32 }
%struct.AVRational = type { i32, i32 }
%struct.AVChannelLayout = type { i32, i32, %union.anon, ptr }
%union.anon = type { i64 }

@ff_g723_1_parser = constant %struct.AVCodecParser { [7 x i32] [i32 86068, i32 0, i32 0, i32 0, i32 0, i32 0, i32 0], i32 48, ptr null, ptr @g723_1_parse, ptr @ff_parse_close, ptr null }, align 8
@frame_size = internal constant [4 x i8] c"\18\14\04\01", align 1

; Function Attrs: nounwind uwtable
define internal i32 @g723_1_parse(ptr noundef %0, ptr noundef %1, ptr noundef %2, ptr noundef %3, ptr noundef %4, i32 noundef %5) #0 {
  %7 = alloca i32, align 4
  %8 = alloca ptr, align 8
  %9 = alloca ptr, align 8
  %10 = alloca ptr, align 8
  %11 = alloca ptr, align 8
  %12 = alloca ptr, align 8
  %13 = alloca i32, align 4
  %14 = alloca ptr, align 8
  %15 = alloca ptr, align 8
  %16 = alloca i32, align 4
  %17 = alloca i32, align 4
  store ptr %0, ptr %8, align 8, !tbaa !4
  store ptr %1, ptr %9, align 8, !tbaa !9
  store ptr %2, ptr %10, align 8, !tbaa !11
  store ptr %3, ptr %11, align 8, !tbaa !14
  store ptr %4, ptr %12, align 8, !tbaa !16
  store i32 %5, ptr %13, align 4, !tbaa !18
  call void @llvm.lifetime.start.p0(i64 8, ptr %14) #3
  %18 = load ptr, ptr %8, align 8, !tbaa !4
  %19 = getelementptr inbounds nuw %struct.AVCodecParserContext, ptr %18, i32 0, i32 0
  %20 = load ptr, ptr %19, align 8, !tbaa !20
  store ptr %20, ptr %14, align 8, !tbaa !24
  call void @llvm.lifetime.start.p0(i64 8, ptr %15) #3
  %21 = load ptr, ptr %14, align 8, !tbaa !24
  %22 = getelementptr inbounds nuw %struct.G723_1ParseContext, ptr %21, i32 0, i32 0
  store ptr %22, ptr %15, align 8, !tbaa !26
  call void @llvm.lifetime.start.p0(i64 4, ptr %16) #3
  store i32 -100, ptr %16, align 4, !tbaa !18
  %23 = load i32, ptr %13, align 4, !tbaa !18
  %24 = icmp sgt i32 %23, 0
  br i1 %24, label %25, label %49

25:                                               ; preds = %6
  %26 = load ptr, ptr %12, align 8, !tbaa !16
  %27 = getelementptr inbounds i8, ptr %26, i64 0
  %28 = load i8, ptr %27, align 1, !tbaa !28
  %29 = zext i8 %28 to i32
  %30 = and i32 %29, 3
  %31 = sext i32 %30 to i64
  %32 = getelementptr inbounds [4 x i8], ptr @frame_size, i64 0, i64 %31
  %33 = load i8, ptr %32, align 1, !tbaa !28
  %34 = zext i8 %33 to i32
  %35 = load ptr, ptr %9, align 8, !tbaa !9
  %36 = getelementptr inbounds nuw %struct.AVCodecContext, ptr %35, i32 0, i32 71
  %37 = getelementptr inbounds nuw %struct.AVChannelLayout, ptr %36, i32 0, i32 1
  %38 = load i32, ptr %37, align 4, !tbaa !29
  %39 = icmp sgt i32 1, %38
  br i1 %39, label %40, label %41

40:                                               ; preds = %25
  br label %46

41:                                               ; preds = %25
  %42 = load ptr, ptr %9, align 8, !tbaa !9
  %43 = getelementptr inbounds nuw %struct.AVCodecContext, ptr %42, i32 0, i32 71
  %44 = getelementptr inbounds nuw %struct.AVChannelLayout, ptr %43, i32 0, i32 1
  %45 = load i32, ptr %44, align 4, !tbaa !29
  br label %46

46:                                               ; preds = %41, %40
  %47 = phi i32 [ 1, %40 ], [ %45, %41 ]
  %48 = mul nsw i32 %34, %47
  store i32 %48, ptr %16, align 4, !tbaa !18
  br label %49

49:                                               ; preds = %46, %6
  %50 = load ptr, ptr %15, align 8, !tbaa !26
  %51 = load i32, ptr %16, align 4, !tbaa !18
  %52 = call i32 @ff_combine_frame(ptr noundef %50, i32 noundef %51, ptr noundef %12, ptr noundef %13)
  %53 = icmp slt i32 %52, 0
  br i1 %53, label %57, label %54

54:                                               ; preds = %49
  %55 = load i32, ptr %13, align 4, !tbaa !18
  %56 = icmp ne i32 %55, 0
  br i1 %56, label %61, label %57

57:                                               ; preds = %54, %49
  %58 = load ptr, ptr %10, align 8, !tbaa !11
  store ptr null, ptr %58, align 8, !tbaa !16
  %59 = load ptr, ptr %11, align 8, !tbaa !14
  store i32 0, ptr %59, align 4, !tbaa !18
  %60 = load i32, ptr %13, align 4, !tbaa !18
  store i32 %60, ptr %7, align 4
  store i32 1, ptr %17, align 4
  br label %69

61:                                               ; preds = %54
  %62 = load ptr, ptr %8, align 8, !tbaa !4
  %63 = getelementptr inbounds nuw %struct.AVCodecParserContext, ptr %62, i32 0, i32 26
  store i32 240, ptr %63, align 8, !tbaa !44
  %64 = load ptr, ptr %12, align 8, !tbaa !16
  %65 = load ptr, ptr %10, align 8, !tbaa !11
  store ptr %64, ptr %65, align 8, !tbaa !16
  %66 = load i32, ptr %13, align 4, !tbaa !18
  %67 = load ptr, ptr %11, align 8, !tbaa !14
  store i32 %66, ptr %67, align 4, !tbaa !18
  %68 = load i32, ptr %16, align 4, !tbaa !18
  store i32 %68, ptr %7, align 4
  store i32 1, ptr %17, align 4
  br label %69

69:                                               ; preds = %61, %57
  call void @llvm.lifetime.end.p0(i64 4, ptr %16) #3
  call void @llvm.lifetime.end.p0(i64 8, ptr %15) #3
  call void @llvm.lifetime.end.p0(i64 8, ptr %14) #3
  %70 = load i32, ptr %7, align 4
  ret i32 %70
}

declare void @ff_parse_close(ptr noundef) #1

; Function Attrs: nocallback nofree nosync nounwind willreturn memory(argmem: readwrite)
declare void @llvm.lifetime.start.p0(i64 immarg, ptr captures(none)) #2

declare i32 @ff_combine_frame(ptr noundef, i32 noundef, ptr noundef, ptr noundef) #1

; Function Attrs: nocallback nofree nosync nounwind willreturn memory(argmem: readwrite)
declare void @llvm.lifetime.end.p0(i64 immarg, ptr captures(none)) #2


!llvm.module.flags = !{!0, !1, !2, !3}

!0 = !{i32 1, !"wchar_size", i32 4}
!1 = !{i32 8, !"PIC Level", i32 2}
!2 = !{i32 7, !"uwtable", i32 2}
!3 = !{i32 1, !"override-stack-alignment", i32 16}
!4 = !{!5, !5, i64 0}
!5 = !{!"p1 _ZTS20AVCodecParserContext", !6, i64 0}
!6 = !{!"any pointer", !7, i64 0}
!7 = !{!"omnipotent char", !8, i64 0}
!8 = !{!"Simple C/C++ TBAA"}
!9 = !{!10, !10, i64 0}
!10 = !{!"p1 _ZTS14AVCodecContext", !6, i64 0}
!11 = !{!12, !12, i64 0}
!12 = !{!"p2 omnipotent char", !13, i64 0}
!13 = !{!"any p2 pointer", !6, i64 0}
!14 = !{!15, !15, i64 0}
!15 = !{!"p1 int", !6, i64 0}
!16 = !{!17, !17, i64 0}
!17 = !{!"p1 omnipotent char", !6, i64 0}
!18 = !{!19, !19, i64 0}
!19 = !{!"int", !7, i64 0}
!20 = !{!21, !6, i64 0}
!21 = !{!"AVCodecParserContext", !6, i64 0, !22, i64 8, !23, i64 16, !23, i64 24, !23, i64 32, !19, i64 40, !19, i64 44, !23, i64 48, !23, i64 56, !23, i64 64, !23, i64 72, !19, i64 80, !19, i64 84, !7, i64 88, !7, i64 120, !7, i64 152, !19, i64 184, !23, i64 192, !7, i64 200, !19, i64 232, !19, i64 236, !19, i64 240, !19, i64 244, !7, i64 248, !23, i64 280, !23, i64 288, !19, i64 296, !19, i64 300, !19, i64 304, !19, i64 308, !19, i64 312, !19, i64 316, !19, i64 320, !19, i64 324, !19, i64 328}
!22 = !{!"p1 _ZTS13AVCodecParser", !6, i64 0}
!23 = !{!"long", !7, i64 0}
!24 = !{!25, !25, i64 0}
!25 = !{!"p1 _ZTS18G723_1ParseContext", !6, i64 0}
!26 = !{!27, !27, i64 0}
!27 = !{!"p1 _ZTS12ParseContext", !6, i64 0}
!28 = !{!7, !7, i64 0}
!29 = !{!30, !19, i64 356}
!30 = !{!"AVCodecContext", !31, i64 0, !19, i64 8, !19, i64 12, !32, i64 16, !19, i64 24, !19, i64 28, !6, i64 32, !33, i64 40, !6, i64 48, !23, i64 56, !19, i64 64, !19, i64 68, !17, i64 72, !19, i64 80, !34, i64 84, !34, i64 92, !34, i64 100, !19, i64 108, !19, i64 112, !19, i64 116, !19, i64 120, !19, i64 124, !34, i64 128, !19, i64 136, !19, i64 140, !19, i64 144, !19, i64 148, !19, i64 152, !19, i64 156, !19, i64 160, !19, i64 164, !19, i64 168, !19, i64 172, !19, i64 176, !6, i64 184, !6, i64 192, !19, i64 200, !35, i64 204, !35, i64 208, !35, i64 212, !35, i64 216, !35, i64 220, !35, i64 224, !35, i64 228, !35, i64 232, !35, i64 236, !19, i64 240, !19, i64 244, !19, i64 248, !19, i64 252, !19, i64 256, !19, i64 260, !19, i64 264, !19, i64 268, !19, i64 272, !19, i64 276, !19, i64 280, !19, i64 284, !36, i64 288, !36, i64 296, !36, i64 304, !19, i64 312, !19, i64 316, !19, i64 320, !19, i64 324, !19, i64 328, !19, i64 332, !19, i64 336, !19, i64 340, !19, i64 344, !19, i64 348, !37, i64 352, !19, i64 376, !19, i64 380, !19, i64 384, !19, i64 388, !19, i64 392, !19, i64 396, !19, i64 400, !19, i64 404, !6, i64 408, !19, i64 416, !19, i64 420, !19, i64 424, !35, i64 428, !35, i64 432, !19, i64 436, !19, i64 440, !19, i64 444, !19, i64 448, !19, i64 452, !38, i64 456, !23, i64 464, !23, i64 472, !35, i64 480, !35, i64 484, !19, i64 488, !19, i64 492, !17, i64 496, !17, i64 504, !19, i64 512, !19, i64 516, !19, i64 520, !19, i64 524, !19, i64 528, !39, i64 536, !6, i64 544, !40, i64 552, !40, i64 560, !19, i64 568, !19, i64 572, !7, i64 576, !19, i64 640, !19, i64 644, !19, i64 648, !19, i64 652, !19, i64 656, !19, i64 660, !19, i64 664, !6, i64 672, !6, i64 680, !19, i64 688, !19, i64 692, !19, i64 696, !19, i64 700, !19, i64 704, !19, i64 708, !19, i64 712, !19, i64 716, !19, i64 720, !19, i64 724, !41, i64 728, !17, i64 736, !19, i64 744, !19, i64 748, !17, i64 752, !17, i64 760, !17, i64 768, !42, i64 776, !19, i64 784, !19, i64 788, !23, i64 792, !19, i64 800, !19, i64 804, !23, i64 808, !6, i64 816, !23, i64 824, !15, i64 832, !19, i64 840, !43, i64 848, !19, i64 856}
!31 = !{!"p1 _ZTS7AVClass", !6, i64 0}
!32 = !{!"p1 _ZTS7AVCodec", !6, i64 0}
!33 = !{!"p1 _ZTS15AVCodecInternal", !6, i64 0}
!34 = !{!"AVRational", !19, i64 0, !19, i64 4}
!35 = !{!"float", !7, i64 0}
!36 = !{!"p1 short", !6, i64 0}
!37 = !{!"AVChannelLayout", !19, i64 0, !19, i64 4, !7, i64 8, !6, i64 16}
!38 = !{!"p1 _ZTS10RcOverride", !6, i64 0}
!39 = !{!"p1 _ZTS9AVHWAccel", !6, i64 0}
!40 = !{!"p1 _ZTS11AVBufferRef", !6, i64 0}
!41 = !{!"p1 _ZTS17AVCodecDescriptor", !6, i64 0}
!42 = !{!"p1 _ZTS16AVPacketSideData", !6, i64 0}
!43 = !{!"p2 _ZTS15AVFrameSideData", !13, i64 0}
!44 = !{!21, !19, i64 296}
