; ModuleID = 'bench/ffmpeg/original/g723_1_parser.ll'
source_filename = "bench/ffmpeg/original/g723_1_parser.ll"
target datalayout = "e-m:e-p270:32:32-p271:32:32-p272:64:64-i64:64-i128:128-f80:128-n8:16:32:64-S128"
target triple = "x86_64-pc-linux-gnu"

%struct.AVCodecParser = type { [7 x i32], i32, ptr, ptr, ptr, ptr }

@ff_g723_1_parser = local_unnamed_addr constant %struct.AVCodecParser { [7 x i32] [i32 86068, i32 0, i32 0, i32 0, i32 0, i32 0, i32 0], i32 48, ptr null, ptr @g723_1_parse, ptr @ff_parse_close, ptr null }, align 8
@frame_size = internal unnamed_addr constant [4 x i8] c"\18\14\04\01", align 1

; Function Attrs: nounwind uwtable
define internal i32 @g723_1_parse(ptr noundef captures(none) %0, ptr noundef readonly captures(none) %1, ptr noundef writeonly captures(none) initializes((0, 8)) %2, ptr noundef writeonly captures(none) initializes((0, 4)) %3, ptr noundef %4, i32 noundef %5) #0 {
  %7 = alloca ptr, align 8
  %8 = alloca i32, align 4
  store ptr %4, ptr %7, align 8, !tbaa !4
  store i32 %5, ptr %8, align 4, !tbaa !9
  %9 = load ptr, ptr %0, align 8, !tbaa !11
  %10 = icmp sgt i32 %5, 0
  br i1 %10, label %11, label %21

11:                                               ; preds = %6
  %12 = load i8, ptr %4, align 1, !tbaa !15
  %13 = and i8 %12, 3
  %14 = zext nneg i8 %13 to i64
  %15 = getelementptr inbounds nuw [4 x i8], ptr @frame_size, i64 0, i64 %14
  %16 = load i8, ptr %15, align 1, !tbaa !15
  %17 = zext i8 %16 to i32
  %18 = getelementptr inbounds nuw i8, ptr %1, i64 356
  %19 = load i32, ptr %18, align 4, !tbaa !16
  %spec.select = tail call i32 @llvm.smax.i32(i32 %19, i32 1)
  %20 = mul nuw nsw i32 %spec.select, %17
  br label %21

21:                                               ; preds = %11, %6
  %.0 = phi i32 [ %20, %11 ], [ -100, %6 ]
  %22 = call i32 @ff_combine_frame(ptr noundef %9, i32 noundef %.0, ptr noundef nonnull %7, ptr noundef nonnull %8) #3
  %23 = icmp sgt i32 %22, -1
  %24 = load i32, ptr %8, align 4
  %25 = icmp ne i32 %24, 0
  %or.cond = select i1 %23, i1 %25, i1 false
  br i1 %or.cond, label %26, label %29

26:                                               ; preds = %21
  %27 = getelementptr inbounds nuw i8, ptr %0, i64 296
  store i32 240, ptr %27, align 8, !tbaa !33
  %28 = load ptr, ptr %7, align 8, !tbaa !4
  br label %29

29:                                               ; preds = %21, %26
  %storemerge15 = phi ptr [ %28, %26 ], [ null, %21 ]
  %storemerge = phi i32 [ %24, %26 ], [ 0, %21 ]
  %.013 = phi i32 [ %.0, %26 ], [ %24, %21 ]
  store ptr %storemerge15, ptr %2, align 8, !tbaa !4
  store i32 %storemerge, ptr %3, align 4, !tbaa !9
  ret i32 %.013
}

declare void @ff_parse_close(ptr noundef) #1

declare i32 @ff_combine_frame(ptr noundef, i32 noundef, ptr noundef, ptr noundef) local_unnamed_addr #1

; Function Attrs: nocallback nofree nosync nounwind speculatable willreturn memory(none)
declare i32 @llvm.smax.i32(i32, i32) #2


!llvm.module.flags = !{!0, !1, !2, !3}

!0 = !{i32 1, !"wchar_size", i32 4}
!1 = !{i32 8, !"PIC Level", i32 2}
!2 = !{i32 7, !"uwtable", i32 2}
!3 = !{i32 1, !"override-stack-alignment", i32 16}
!4 = !{!5, !5, i64 0}
!5 = !{!"p1 omnipotent char", !6, i64 0}
!6 = !{!"any pointer", !7, i64 0}
!7 = !{!"omnipotent char", !8, i64 0}
!8 = !{!"Simple C/C++ TBAA"}
!9 = !{!10, !10, i64 0}
!10 = !{!"int", !7, i64 0}
!11 = !{!12, !6, i64 0}
!12 = !{!"AVCodecParserContext", !6, i64 0, !13, i64 8, !14, i64 16, !14, i64 24, !14, i64 32, !10, i64 40, !10, i64 44, !14, i64 48, !14, i64 56, !14, i64 64, !14, i64 72, !10, i64 80, !10, i64 84, !7, i64 88, !7, i64 120, !7, i64 152, !10, i64 184, !14, i64 192, !7, i64 200, !10, i64 232, !10, i64 236, !10, i64 240, !10, i64 244, !7, i64 248, !14, i64 280, !14, i64 288, !10, i64 296, !10, i64 300, !10, i64 304, !10, i64 308, !10, i64 312, !10, i64 316, !10, i64 320, !10, i64 324, !10, i64 328}
!13 = !{!"p1 _ZTS13AVCodecParser", !6, i64 0}
!14 = !{!"long", !7, i64 0}
!15 = !{!7, !7, i64 0}
!16 = !{!17, !10, i64 356}
!17 = !{!"AVCodecContext", !18, i64 0, !10, i64 8, !10, i64 12, !19, i64 16, !10, i64 24, !10, i64 28, !6, i64 32, !20, i64 40, !6, i64 48, !14, i64 56, !10, i64 64, !10, i64 68, !5, i64 72, !10, i64 80, !21, i64 84, !21, i64 92, !21, i64 100, !10, i64 108, !10, i64 112, !10, i64 116, !10, i64 120, !10, i64 124, !21, i64 128, !10, i64 136, !10, i64 140, !10, i64 144, !10, i64 148, !10, i64 152, !10, i64 156, !10, i64 160, !10, i64 164, !10, i64 168, !10, i64 172, !10, i64 176, !6, i64 184, !6, i64 192, !10, i64 200, !22, i64 204, !22, i64 208, !22, i64 212, !22, i64 216, !22, i64 220, !22, i64 224, !22, i64 228, !22, i64 232, !22, i64 236, !10, i64 240, !10, i64 244, !10, i64 248, !10, i64 252, !10, i64 256, !10, i64 260, !10, i64 264, !10, i64 268, !10, i64 272, !10, i64 276, !10, i64 280, !10, i64 284, !23, i64 288, !23, i64 296, !23, i64 304, !10, i64 312, !10, i64 316, !10, i64 320, !10, i64 324, !10, i64 328, !10, i64 332, !10, i64 336, !10, i64 340, !10, i64 344, !10, i64 348, !24, i64 352, !10, i64 376, !10, i64 380, !10, i64 384, !10, i64 388, !10, i64 392, !10, i64 396, !10, i64 400, !10, i64 404, !6, i64 408, !10, i64 416, !10, i64 420, !10, i64 424, !22, i64 428, !22, i64 432, !10, i64 436, !10, i64 440, !10, i64 444, !10, i64 448, !10, i64 452, !25, i64 456, !14, i64 464, !14, i64 472, !22, i64 480, !22, i64 484, !10, i64 488, !10, i64 492, !5, i64 496, !5, i64 504, !10, i64 512, !10, i64 516, !10, i64 520, !10, i64 524, !10, i64 528, !26, i64 536, !6, i64 544, !27, i64 552, !27, i64 560, !10, i64 568, !10, i64 572, !7, i64 576, !10, i64 640, !10, i64 644, !10, i64 648, !10, i64 652, !10, i64 656, !10, i64 660, !10, i64 664, !6, i64 672, !6, i64 680, !10, i64 688, !10, i64 692, !10, i64 696, !10, i64 700, !10, i64 704, !10, i64 708, !10, i64 712, !10, i64 716, !10, i64 720, !10, i64 724, !28, i64 728, !5, i64 736, !10, i64 744, !10, i64 748, !5, i64 752, !5, i64 760, !5, i64 768, !29, i64 776, !10, i64 784, !10, i64 788, !14, i64 792, !10, i64 800, !10, i64 804, !14, i64 808, !6, i64 816, !14, i64 824, !30, i64 832, !10, i64 840, !31, i64 848, !10, i64 856}
!18 = !{!"p1 _ZTS7AVClass", !6, i64 0}
!19 = !{!"p1 _ZTS7AVCodec", !6, i64 0}
!20 = !{!"p1 _ZTS15AVCodecInternal", !6, i64 0}
!21 = !{!"AVRational", !10, i64 0, !10, i64 4}
!22 = !{!"float", !7, i64 0}
!23 = !{!"p1 short", !6, i64 0}
!24 = !{!"AVChannelLayout", !10, i64 0, !10, i64 4, !7, i64 8, !6, i64 16}
!25 = !{!"p1 _ZTS10RcOverride", !6, i64 0}
!26 = !{!"p1 _ZTS9AVHWAccel", !6, i64 0}
!27 = !{!"p1 _ZTS11AVBufferRef", !6, i64 0}
!28 = !{!"p1 _ZTS17AVCodecDescriptor", !6, i64 0}
!29 = !{!"p1 _ZTS16AVPacketSideData", !6, i64 0}
!30 = !{!"p1 int", !6, i64 0}
!31 = !{!"p2 _ZTS15AVFrameSideData", !32, i64 0}
!32 = !{!"any p2 pointer", !6, i64 0}
!33 = !{!12, !10, i64 296}
